CCS PCM C Compiler, Version 5.007, 61971               23-Oct-20 14:27

               Filename:   C:\Users\sheep\Desktop\micro_1\micro_1.lst

               ROM used:   70 words (1%)
                           Largest free fragment is 2048
               RAM used:   5 (1%) at main() level
                           6 (2%) worst case
               Stack used: 0 locations
               Stack size: 8

*
0000:  MOVLW  00
0001:  MOVWF  0A
0002:  GOTO   019
0003:  NOP
.................... /** 
.................... Ramazan Degirmenci 
.................... 21856255 
.................... */ 
....................  
....................  
.................... #include <micro_1.h> 
.................... #include <16F877A.h> 
.................... //////// Standard Header file for the PIC16F877A device //////////////// 
.................... #device PIC16F877A 
....................  
.................... #list 
....................  
.................... #device ADC=16 
....................  
.................... #FUSES NOWDT                 	//No Watch Dog Timer 
.................... #FUSES NOBROWNOUT            	//No brownout reset 
.................... #FUSES NOLVP                 	//No low voltage prgming, B3(PIC16) or B5(PIC18) used for I/O 
....................  
.................... #use delay(crystal=20000000) 
....................  
....................  
.................... #fuses HS,NOPROTECT,NOWDT,NOWRT,NOWRT,NOLVP,NOCPD,NODEBUG,NOBROWNOUT,NOPUT  
.................... #use delay(clock=4000000)  
0004:  MOVLW  21
0005:  MOVWF  04
0006:  BCF    03.7
0007:  MOVF   00,W
0008:  BTFSC  03.2
0009:  GOTO   018
000A:  MOVLW  01
000B:  MOVWF  78
000C:  CLRF   77
000D:  DECFSZ 77,F
000E:  GOTO   00D
000F:  DECFSZ 78,F
0010:  GOTO   00C
0011:  MOVLW  4A
0012:  MOVWF  77
0013:  DECFSZ 77,F
0014:  GOTO   013
0015:  GOTO   016
0016:  DECFSZ 00,F
0017:  GOTO   00A
0018:  RETURN
.................... #use fast_io(c) // C portu kullanilacak 
.................... void main(){ 
0019:  BSF    03.5
001A:  BSF    1F.0
001B:  BSF    1F.1
001C:  BSF    1F.2
001D:  BCF    1F.3
001E:  MOVLW  07
001F:  MOVWF  1C
0020:  BCF    03.7
0021:  MOVLW  1F
0022:  ANDWF  03,F
.................... setup_psp(PSP_DISABLED); 
0023:  BCF    09.4
.................... setup_spi(SPI_SS_DISABLED); 
0024:  BCF    03.5
0025:  BCF    14.5
0026:  MOVLW  01
0027:  MOVWF  14
0028:  MOVLW  00
0029:  BSF    03.5
002A:  MOVWF  14
.................... setup_timer_1(T1_DISABLED);  
002B:  BCF    03.5
002C:  CLRF   10
.................... setup_timer_2(T2_DISABLED,0,1); 
002D:  MOVWF  78
002E:  MOVWF  12
002F:  MOVLW  00
0030:  BSF    03.5
0031:  MOVWF  12
.................... setup_adc(ADC_OFF); 
0032:  BCF    03.5
0033:  BCF    1F.0
.................... setup_ccp1(CCP_OFF);  
0034:  MOVLW  F0
0035:  ANDWF  17,F
.................... setup_ccp2(CCP_OFF); 
0036:  ANDWF  1D,F
....................  
.................... set_tris_c(0x00);  
0037:  MOVLW  00
0038:  BSF    03.5
0039:  MOVWF  07
.................... output_c(0x00);  
003A:  BCF    03.5
003B:  CLRF   07
.................... basla: 
.................... output_high(pin_c0); 
003C:  BSF    07.0
.................... delay_ms(250); 
003D:  MOVLW  FA
003E:  MOVWF  21
003F:  CALL   004
.................... output_low(pin_c0); 
0040:  BCF    07.0
.................... delay_ms(250); 
0041:  MOVLW  FA
0042:  MOVWF  21
0043:  CALL   004
.................... goto basla;  
0044:  GOTO   03C
.................... } 
....................  
0045:  SLEEP
....................  
....................  
....................  
....................  
....................  
....................  
....................  
....................  
....................  

Configuration Fuses:
   Word  1: 3F3A   HS NOWDT NOPUT NOBROWNOUT NOLVP NOCPD NOWRT NODEBUG NOPROTECT
